; ModuleID = '21/467.c'
source_filename = "21/467.c"
target datalayout = "e-m:e-p270:32:32-p271:32:32-p272:64:64-i64:64-f80:128-n8:16:32:64-S128"
target triple = "x86_64-pc-linux-gnu"

@.str = private unnamed_addr constant [3 x i8] c"%d\00", align 1
@.str.1 = private unnamed_addr constant [4 x i8] c"%d,\00", align 1

; Function Attrs: noinline nounwind uwtable
define dso_local void @main() #0 {
  %1 = alloca i32, align 4
  %2 = alloca i32, align 4
  %3 = alloca [300 x i32], align 16
  %4 = alloca i32, align 4
  %5 = alloca i32, align 4
  %6 = alloca i32, align 4
  %7 = alloca float, align 4
  %8 = alloca float, align 4
  %9 = alloca [300 x float], align 16
  %10 = bitcast [300 x i32]* %3 to i8*
  call void @llvm.memset.p0i8.i64(i8* align 16 %10, i8 0, i64 1200, i1 false)
  store i32 0, i32* %4, align 4
  %11 = call i32 (i8*, ...) @__isoc99_scanf(i8* getelementptr inbounds ([3 x i8], [3 x i8]* @.str, i64 0, i64 0), i32* %1)
  store i32 0, i32* %2, align 4
  br label %12

12:                                               ; preds = %27, %0
  %13 = load i32, i32* %2, align 4
  %14 = load i32, i32* %1, align 4
  %15 = icmp slt i32 %13, %14
  br i1 %15, label %16, label %30

16:                                               ; preds = %12
  %17 = load i32, i32* %2, align 4
  %18 = sext i32 %17 to i64
  %19 = getelementptr inbounds [300 x i32], [300 x i32]* %3, i64 0, i64 %18
  %20 = call i32 (i8*, ...) @__isoc99_scanf(i8* getelementptr inbounds ([3 x i8], [3 x i8]* @.str, i64 0, i64 0), i32* %19)
  %21 = load i32, i32* %4, align 4
  %22 = load i32, i32* %2, align 4
  %23 = sext i32 %22 to i64
  %24 = getelementptr inbounds [300 x i32], [300 x i32]* %3, i64 0, i64 %23
  %25 = load i32, i32* %24, align 4
  %26 = add nsw i32 %21, %25
  store i32 %26, i32* %4, align 4
  br label %27

27:                                               ; preds = %16
  %28 = load i32, i32* %2, align 4
  %29 = add nsw i32 %28, 1
  store i32 %29, i32* %2, align 4
  br label %12

30:                                               ; preds = %12
  %31 = load i32, i32* %4, align 4
  %32 = sitofp i32 %31 to float
  %33 = load i32, i32* %1, align 4
  %34 = sitofp i32 %33 to float
  %35 = fdiv float %32, %34
  store float %35, float* %7, align 4
  store i32 0, i32* %2, align 4
  br label %36

36:                                               ; preds = %72, %30
  %37 = load i32, i32* %2, align 4
  %38 = load i32, i32* %1, align 4
  %39 = icmp slt i32 %37, %38
  br i1 %39, label %40, label %75

40:                                               ; preds = %36
  %41 = load i32, i32* %2, align 4
  %42 = sext i32 %41 to i64
  %43 = getelementptr inbounds [300 x i32], [300 x i32]* %3, i64 0, i64 %42
  %44 = load i32, i32* %43, align 4
  %45 = sitofp i32 %44 to float
  %46 = load float, float* %7, align 4
  %47 = fsub float %45, %46
  %48 = fcmp oge float %47, 0.000000e+00
  br i1 %48, label %49, label %60

49:                                               ; preds = %40
  %50 = load i32, i32* %2, align 4
  %51 = sext i32 %50 to i64
  %52 = getelementptr inbounds [300 x i32], [300 x i32]* %3, i64 0, i64 %51
  %53 = load i32, i32* %52, align 4
  %54 = sitofp i32 %53 to float
  %55 = load float, float* %7, align 4
  %56 = fsub float %54, %55
  %57 = load i32, i32* %2, align 4
  %58 = sext i32 %57 to i64
  %59 = getelementptr inbounds [300 x float], [300 x float]* %9, i64 0, i64 %58
  store float %56, float* %59, align 4
  br label %71

60:                                               ; preds = %40
  %61 = load float, float* %7, align 4
  %62 = load i32, i32* %2, align 4
  %63 = sext i32 %62 to i64
  %64 = getelementptr inbounds [300 x i32], [300 x i32]* %3, i64 0, i64 %63
  %65 = load i32, i32* %64, align 4
  %66 = sitofp i32 %65 to float
  %67 = fsub float %61, %66
  %68 = load i32, i32* %2, align 4
  %69 = sext i32 %68 to i64
  %70 = getelementptr inbounds [300 x float], [300 x float]* %9, i64 0, i64 %69
  store float %67, float* %70, align 4
  br label %71

71:                                               ; preds = %60, %49
  br label %72

72:                                               ; preds = %71
  %73 = load i32, i32* %2, align 4
  %74 = add nsw i32 %73, 1
  store i32 %74, i32* %2, align 4
  br label %36

75:                                               ; preds = %36
  store i32 0, i32* %2, align 4
  br label %76

76:                                               ; preds = %138, %75
  %77 = load i32, i32* %2, align 4
  %78 = load i32, i32* %1, align 4
  %79 = icmp slt i32 %77, %78
  br i1 %79, label %80, label %141

80:                                               ; preds = %76
  store i32 0, i32* %5, align 4
  br label %81

81:                                               ; preds = %134, %80
  %82 = load i32, i32* %5, align 4
  %83 = load i32, i32* %1, align 4
  %84 = load i32, i32* %2, align 4
  %85 = sub nsw i32 %83, %84
  %86 = icmp slt i32 %82, %85
  br i1 %86, label %87, label %137

87:                                               ; preds = %81
  %88 = load i32, i32* %5, align 4
  %89 = sext i32 %88 to i64
  %90 = getelementptr inbounds [300 x float], [300 x float]* %9, i64 0, i64 %89
  %91 = load float, float* %90, align 4
  %92 = load i32, i32* %5, align 4
  %93 = add nsw i32 %92, 1
  %94 = sext i32 %93 to i64
  %95 = getelementptr inbounds [300 x float], [300 x float]* %9, i64 0, i64 %94
  %96 = load float, float* %95, align 4
  %97 = fcmp olt float %91, %96
  br i1 %97, label %98, label %133

98:                                               ; preds = %87
  %99 = load i32, i32* %5, align 4
  %100 = sext i32 %99 to i64
  %101 = getelementptr inbounds [300 x float], [300 x float]* %9, i64 0, i64 %100
  %102 = load float, float* %101, align 4
  store float %102, float* %8, align 4
  %103 = load i32, i32* %5, align 4
  %104 = add nsw i32 %103, 1
  %105 = sext i32 %104 to i64
  %106 = getelementptr inbounds [300 x float], [300 x float]* %9, i64 0, i64 %105
  %107 = load float, float* %106, align 4
  %108 = load i32, i32* %5, align 4
  %109 = sext i32 %108 to i64
  %110 = getelementptr inbounds [300 x float], [300 x float]* %9, i64 0, i64 %109
  store float %107, float* %110, align 4
  %111 = load float, float* %8, align 4
  %112 = load i32, i32* %5, align 4
  %113 = add nsw i32 %112, 1
  %114 = sext i32 %113 to i64
  %115 = getelementptr inbounds [300 x float], [300 x float]* %9, i64 0, i64 %114
  store float %111, float* %115, align 4
  %116 = load i32, i32* %5, align 4
  %117 = sext i32 %116 to i64
  %118 = getelementptr inbounds [300 x i32], [300 x i32]* %3, i64 0, i64 %117
  %119 = load i32, i32* %118, align 4
  store i32 %119, i32* %6, align 4
  %120 = load i32, i32* %5, align 4
  %121 = add nsw i32 %120, 1
  %122 = sext i32 %121 to i64
  %123 = getelementptr inbounds [300 x i32], [300 x i32]* %3, i64 0, i64 %122
  %124 = load i32, i32* %123, align 4
  %125 = load i32, i32* %5, align 4
  %126 = sext i32 %125 to i64
  %127 = getelementptr inbounds [300 x i32], [300 x i32]* %3, i64 0, i64 %126
  store i32 %124, i32* %127, align 4
  %128 = load i32, i32* %6, align 4
  %129 = load i32, i32* %5, align 4
  %130 = add nsw i32 %129, 1
  %131 = sext i32 %130 to i64
  %132 = getelementptr inbounds [300 x i32], [300 x i32]* %3, i64 0, i64 %131
  store i32 %128, i32* %132, align 4
  br label %133

133:                                              ; preds = %98, %87
  br label %134

134:                                              ; preds = %133
  %135 = load i32, i32* %5, align 4
  %136 = add nsw i32 %135, 1
  store i32 %136, i32* %5, align 4
  br label %81

137:                                              ; preds = %81
  br label %138

138:                                              ; preds = %137
  %139 = load i32, i32* %2, align 4
  %140 = add nsw i32 %139, 1
  store i32 %140, i32* %2, align 4
  br label %76

141:                                              ; preds = %76
  store i32 0, i32* %2, align 4
  br label %142

142:                                              ; preds = %153, %141
  %143 = load i32, i32* %2, align 4
  %144 = sext i32 %143 to i64
  %145 = getelementptr inbounds [300 x float], [300 x float]* %9, i64 0, i64 %144
  %146 = load float, float* %145, align 4
  %147 = load i32, i32* %2, align 4
  %148 = add nsw i32 %147, 1
  %149 = sext i32 %148 to i64
  %150 = getelementptr inbounds [300 x float], [300 x float]* %9, i64 0, i64 %149
  %151 = load float, float* %150, align 4
  %152 = fcmp oeq float %146, %151
  br i1 %152, label %153, label %156

153:                                              ; preds = %142
  %154 = load i32, i32* %2, align 4
  %155 = add nsw i32 %154, 1
  store i32 %155, i32* %2, align 4
  br label %142

156:                                              ; preds = %142
  %157 = load i32, i32* %2, align 4
  %158 = icmp eq i32 %157, 0
  br i1 %158, label %159, label %163

159:                                              ; preds = %156
  %160 = getelementptr inbounds [300 x i32], [300 x i32]* %3, i64 0, i64 0
  %161 = load i32, i32* %160, align 16
  %162 = call i32 (i8*, ...) @printf(i8* getelementptr inbounds ([3 x i8], [3 x i8]* @.str, i64 0, i64 0), i32 %161)
  br label %183

163:                                              ; preds = %156
  store i32 0, i32* %5, align 4
  br label %164

164:                                              ; preds = %174, %163
  %165 = load i32, i32* %5, align 4
  %166 = load i32, i32* %2, align 4
  %167 = icmp slt i32 %165, %166
  br i1 %167, label %168, label %177

168:                                              ; preds = %164
  %169 = load i32, i32* %5, align 4
  %170 = sext i32 %169 to i64
  %171 = getelementptr inbounds [300 x i32], [300 x i32]* %3, i64 0, i64 %170
  %172 = load i32, i32* %171, align 4
  %173 = call i32 (i8*, ...) @printf(i8* getelementptr inbounds ([4 x i8], [4 x i8]* @.str.1, i64 0, i64 0), i32 %172)
  br label %174

174:                                              ; preds = %168
  %175 = load i32, i32* %5, align 4
  %176 = add nsw i32 %175, 1
  store i32 %176, i32* %5, align 4
  br label %164

177:                                              ; preds = %164
  %178 = load i32, i32* %2, align 4
  %179 = sext i32 %178 to i64
  %180 = getelementptr inbounds [300 x i32], [300 x i32]* %3, i64 0, i64 %179
  %181 = load i32, i32* %180, align 4
  %182 = call i32 (i8*, ...) @printf(i8* getelementptr inbounds ([3 x i8], [3 x i8]* @.str, i64 0, i64 0), i32 %181)
  br label %183

183:                                              ; preds = %177, %159
  ret void
}

; Function Attrs: argmemonly nounwind willreturn
declare void @llvm.memset.p0i8.i64(i8* nocapture writeonly, i8, i64, i1 immarg) #1

declare dso_local i32 @__isoc99_scanf(i8*, ...) #2

declare dso_local i32 @printf(i8*, ...) #2


!llvm.module.flags = !{!0}
!llvm.ident = !{!1}

!0 = !{i32 1, !"wchar_size", i32 4}
!1 = !{!"clang version 10.0.0-4ubuntu1 "}
